target datalayout = "e-m:e-p270:32:32-p271:32:32-p272:64:64-i64:64-i128:128-f80:128-n8:16:32:64-S128"
target triple = "x86_64-pc-linux-gnu"

%struct.prov_aes_ocb_ctx_st = type { %struct.prov_cipher_ctx_st, %union.anon.0, %union.anon.1, %struct.ocb128_context, i32, i8, i64, i64, i64, [16 x i8], [16 x i8], [16 x i8] }
%struct.prov_cipher_ctx_st = type { [16 x i8], [16 x i8], [16 x i8], ptr, %union.anon, i32, i64, i64, i64, i64, i32, i8, i32, ptr, i32, i64, i32, i64, i32, ptr, ptr, ptr }
%union.anon = type { ptr }
%union.anon.0 = type { double, [240 x i8] }
%union.anon.1 = type { double, [240 x i8] }
%struct.ocb128_context = type { ptr, ptr, ptr, ptr, ptr, i64, i64, %union.OCB_BLOCK, %union.OCB_BLOCK, ptr, %struct.anon }
%union.OCB_BLOCK = type { [2 x i64] }
%struct.anon = type { i64, i64, %union.OCB_BLOCK, %union.OCB_BLOCK, %union.OCB_BLOCK, %union.OCB_BLOCK }

@.str = private unnamed_addr constant [62 x i8] c"../openssl/providers/implementations/ciphers/cipher_aes_ocb.c\00", align 1

; Function Attrs: nounwind uwtable
define internal ptr @aes_ocb_newctx(ptr noundef %0, i64 noundef %1, i64 noundef %2, i64 noundef %3, i32 noundef %4, i64 noundef %5) #0 {
  %7 = alloca ptr, align 8
  %8 = alloca ptr, align 8
  %9 = alloca i64, align 8
  %10 = alloca i64, align 8
  %11 = alloca i64, align 8
  %12 = alloca i32, align 4
  %13 = alloca i64, align 8
  %14 = alloca ptr, align 8
  %15 = alloca i32, align 4
  store ptr %0, ptr %8, align 8, !tbaa !3
  store i64 %1, ptr %9, align 8, !tbaa !9
  store i64 %2, ptr %10, align 8, !tbaa !9
  store i64 %3, ptr %11, align 8, !tbaa !9
  store i32 %4, ptr %12, align 4, !tbaa !31
  store i64 %5, ptr %13, align 8, !tbaa !9
  call void @llvm.lifetime.start.p0(i64 8, ptr %14) #5
  %16 = call i32 @ossl_prov_is_running()
  %17 = icmp ne i32 %16, 0
  br i1 %17, label %19, label %18

18:                                               ; preds = %6
  store ptr null, ptr %7, align 8
  store i32 1, ptr %15, align 4
  br label %36

19:                                               ; preds = %6
  %20 = call noalias ptr @CRYPTO_zalloc(i64 noundef 944, ptr noundef @.str, i32 noundef 314)
  store ptr %20, ptr %14, align 8, !tbaa !15
  %21 = load ptr, ptr %14, align 8, !tbaa !15
  %22 = icmp ne ptr %21, null
  br i1 %22, label %23, label %34

23:                                               ; preds = %19
  %24 = load ptr, ptr %14, align 8, !tbaa !15
  %25 = load i64, ptr %9, align 8, !tbaa !9
  %26 = load i64, ptr %10, align 8, !tbaa !9
  %27 = load i64, ptr %11, align 8, !tbaa !9
  %28 = load i32, ptr %12, align 4, !tbaa !31
  %29 = load i64, ptr %13, align 8, !tbaa !9
  %30 = load i64, ptr %9, align 8, !tbaa !9
  %31 = call ptr @ossl_prov_cipher_hw_aes_ocb(i64 noundef %30)
  call void @ossl_cipher_generic_initkey(ptr noundef %24, i64 noundef %25, i64 noundef %26, i64 noundef %27, i32 noundef %28, i64 noundef %29, ptr noundef %31, ptr noundef null)
  %32 = load ptr, ptr %14, align 8, !tbaa !15
  %33 = getelementptr inbounds nuw %struct.prov_aes_ocb_ctx_st, ptr %32, i32 0, i32 6
  store i64 16, ptr %33, align 8, !tbaa !27
  br label %34

34:                                               ; preds = %23, %19
  %35 = load ptr, ptr %14, align 8, !tbaa !15
  store ptr %35, ptr %7, align 8
  store i32 1, ptr %15, align 4
  br label %36

36:                                               ; preds = %34, %18
  call void @llvm.lifetime.end.p0(i64 8, ptr %14) #5
  %37 = load ptr, ptr %7, align 8
  ret ptr %37
}

; Function Attrs: nounwind uwtable
define internal ptr @aes_192_ocb_newctx(ptr noundef %0) #0 {
  %2 = alloca ptr, align 8
  store ptr %0, ptr %2, align 8, !tbaa !3
  %3 = load ptr, ptr %2, align 8, !tbaa !3
  %4 = call ptr @aes_ocb_newctx(ptr noundef %3, i64 noundef 192, i64 noundef 128, i64 noundef 96, i32 noundef 65539, i64 noundef 3)
  ret ptr %4
}